target datalayout = "e-m:e-p270:32:32-p271:32:32-p272:64:64-i64:64-i128:128-f80:128-n8:16:32:64-S128"
target triple = "x86_64-unknown-linux-gnu"

%"class.cvc5::internal::LogicInfo" = type { %"class.std::__cxx11::basic_string", %"class.std::vector", i64, i8, i8, i8, i8, i8, i8, i8, i8 }
%"class.std::__cxx11::basic_string" = type { %"struct.std::__cxx11::basic_string<char>::_Alloc_hider", i64, %union.anon }
%"struct.std::__cxx11::basic_string<char>::_Alloc_hider" = type { ptr }
%union.anon = type { i64, [8 x i8] }
%"class.std::vector" = type { %"struct.std::_Bvector_base" }
%"struct.std::_Bvector_base" = type { %"struct.std::_Bvector_base<std::allocator<bool>>::_Bvector_impl" }
%"struct.std::_Bvector_base<std::allocator<bool>>::_Bvector_impl" = type { %"struct.std::_Bvector_base<std::allocator<bool>>::_Bvector_impl_data" }
%"struct.std::_Bvector_base<std::allocator<bool>>::_Bvector_impl_data" = type { %"struct.std::_Bit_iterator", %"struct.std::_Bit_iterator", ptr }
%"struct.std::_Bit_iterator" = type { %"struct.std::_Bit_iterator_base.base", [4 x i8] }
%"struct.std::_Bit_iterator_base.base" = type <{ ptr, i32 }>

@.str = private unnamed_addr constant [1 x i8] zeroinitializer, align 1
@.str.2 = private unnamed_addr constant [6 x i8] c"*this\00", align 1
@_ZTIN4cvc58internal24IllegalArgumentExceptionE = linkonce_odr constant { ptr, ptr, ptr } { ptr getelementptr inbounds (ptr, ptr @_ZTVN10__cxxabiv120__si_class_type_infoE, i64 2), ptr @_ZTSN4cvc58internal24IllegalArgumentExceptionE, ptr @_ZTIN4cvc58internal9ExceptionE }, comdat, align 8
@.str.40 = private unnamed_addr constant [10 x i8] c"!d_locked\00", align 1
@.str.41 = private unnamed_addr constant [49 x i8] c"This LogicInfo is locked, and cannot be modified\00", align 1
@__PRETTY_FUNCTION__._ZN4cvc58internal9LogicInfo15disableIntegersEv = private unnamed_addr constant [50 x i8] c"void cvc5::internal::LogicInfo::disableIntegers()\00", align 1

; Function Attrs: mustprogress uwtable
define void @_ZN4cvc58internal9LogicInfo15disableIntegersEv(ptr noundef nonnull align 8 dereferenceable(88) %this) #4 align 2 personality ptr @__gxx_personality_v0 {
entry:
  %this.addr = alloca ptr, align 8
  %ref.tmp = alloca %"class.std::__cxx11::basic_string", align 8
  %exn.slot = alloca ptr, align 8
  %ehselector.slot = alloca i32, align 4
  %cleanup.isactive = alloca i1, align 1
  store ptr %this, ptr %this.addr, align 8
  %this1 = load ptr, ptr %this.addr, align 8
  br label %do.body

do.body:                                          ; preds = %entry
  %d_locked = getelementptr inbounds %"class.cvc5::internal::LogicInfo", ptr %this1, i32 0, i32 10
  %0 = load i8, ptr %d_locked, align 1
  %tobool = trunc i8 %0 to i1
  %lnot = xor i1 %tobool, true
  %lnot2 = xor i1 %lnot, true
  br i1 %lnot2, label %if.then, label %if.end

if.then:                                          ; preds = %do.body
  store i1 true, ptr %cleanup.isactive, align 1
  %exception = call ptr @__cxa_allocate_exception(i64 40) #3
  invoke void (ptr, ptr, ...) @_ZN4cvc58internal24IllegalArgumentException14formatVariadicB5cxx11EPKcz(ptr sret(%"class.std::__cxx11::basic_string") align 8 %ref.tmp, ptr noundef @.str.41)
          to label %invoke.cont unwind label %lpad

invoke.cont:                                      ; preds = %if.then
  %call = call noundef ptr @_ZNKSt7__cxx1112basic_stringIcSt11char_traitsIcESaIcEE5c_strEv(ptr noundef nonnull align 8 dereferenceable(32) %ref.tmp) #3
  invoke void @_ZN4cvc58internal24IllegalArgumentExceptionC2EPKcS3_S3_S3_(ptr noundef nonnull align 8 dereferenceable(40) %exception, ptr noundef @.str.40, ptr noundef @.str.2, ptr noundef @__PRETTY_FUNCTION__._ZN4cvc58internal9LogicInfo15disableIntegersEv, ptr noundef %call)
          to label %invoke.cont4 unwind label %lpad3

invoke.cont4:                                     ; preds = %invoke.cont
  store i1 false, ptr %cleanup.isactive, align 1
  invoke void @__cxa_throw(ptr %exception, ptr @_ZTIN4cvc58internal24IllegalArgumentExceptionE, ptr @_ZN4cvc58internal24IllegalArgumentExceptionD2Ev) #14
          to label %unreachable unwind label %lpad3

lpad:                                             ; preds = %if.then
  %1 = landingpad { ptr, i32 }
          cleanup
  %2 = extractvalue { ptr, i32 } %1, 0
  store ptr %2, ptr %exn.slot, align 8
  %3 = extractvalue { ptr, i32 } %1, 1
  store i32 %3, ptr %ehselector.slot, align 4
  br label %ehcleanup

lpad3:                                            ; preds = %invoke.cont4, %invoke.cont
  %4 = landingpad { ptr, i32 }
          cleanup
  %5 = extractvalue { ptr, i32 } %4, 0
  store ptr %5, ptr %exn.slot, align 8
  %6 = extractvalue { ptr, i32 } %4, 1
  store i32 %6, ptr %ehselector.slot, align 4
  call void @_ZNSt7__cxx1112basic_stringIcSt11char_traitsIcESaIcEED1Ev(ptr noundef nonnull align 8 dereferenceable(32) %ref.tmp) #3
  br label %ehcleanup

ehcleanup:                                        ; preds = %lpad3, %lpad
  %cleanup.is_active = load i1, ptr %cleanup.isactive, align 1
  br i1 %cleanup.is_active, label %cleanup.action, label %cleanup.done

cleanup.action:                                   ; preds = %ehcleanup
  call void @__cxa_free_exception(ptr %exception) #3
  br label %cleanup.done

cleanup.done:                                     ; preds = %cleanup.action, %ehcleanup
  br label %eh.resume

if.end:                                           ; preds = %do.body
  br label %do.end

do.end:                                           ; preds = %if.end
  %d_logicString = getelementptr inbounds %"class.cvc5::internal::LogicInfo", ptr %this1, i32 0, i32 0
  %call5 = call noundef nonnull align 8 dereferenceable(32) ptr @_ZNSt7__cxx1112basic_stringIcSt11char_traitsIcESaIcEEaSEPKc(ptr noundef nonnull align 8 dereferenceable(32) %d_logicString, ptr noundef @.str)
  %d_integers = getelementptr inbounds %"class.cvc5::internal::LogicInfo", ptr %this1, i32 0, i32 3
  store i8 0, ptr %d_integers, align 8
  %d_reals = getelementptr inbounds %"class.cvc5::internal::LogicInfo", ptr %this1, i32 0, i32 4
  %7 = load i8, ptr %d_reals, align 1
  %tobool6 = trunc i8 %7 to i1
  br i1 %tobool6, label %if.end8, label %if.then7

if.then7:                                         ; preds = %do.end
  call void @_ZN4cvc58internal9LogicInfo13disableTheoryENS0_6theory8TheoryIdE(ptr noundef nonnull align 8 dereferenceable(88) %this1, i32 noundef 3)
  br label %if.end8

if.end8:                                          ; preds = %if.then7, %do.end
  ret void

eh.resume:                                        ; preds = %cleanup.done
  %exn = load ptr, ptr %exn.slot, align 8
  %sel = load i32, ptr %ehselector.slot, align 4
  %lpad.val = insertvalue { ptr, i32 } poison, ptr %exn, 0
  %lpad.val9 = insertvalue { ptr, i32 } %lpad.val, i32 %sel, 1
  resume { ptr, i32 } %lpad.val9

unreachable:                                      ; preds = %invoke.cont4
  unreachable
}